(i__main__
Windows
p0
(dp1
S'Windows'
p2
(dp3
I67108881
(i__main__
Window
p4
(dp5
S'WindowIdHex'
p6
S'0x4000011'
p7
sS'Parent'
p8
(i__main__
Node
p9
(dp10
S'ChildA'
p11
(i__main__
Node
p12
(dp13
g11
(i__main__
Window
p14
(dp15
g6
S'0x4000693'
p16
sg8
g12
sS'WindowIdDec'
p17
I67110547
sS'Maximized'
p18
I00
sbsS'ChildB'
p19
(i__main__
Window
p20
(dp21
g6
S'0x4800006'
p22
sg8
g12
sg17
I75497478
sg18
I00
sbsS'Split'
p23
I690
sg8
g9
sS'PlaneType'
p24
I0
sbsg19
g4
sg23
I4780
sg8
(i__main__
Screen
p25
(dp26
S'Child'
p27
g9
sS'R'
p28
I5760
sS'U'
p29
I0
sS'L'
p30
I3840
sS'D'
p31
I1080
sbsg24
I1
sbsg17
I67108881
sg18
I00
sbsI77594630
(i__main__
Window
p32
(dp33
g6
S'0x4a00006'
p34
sg8
(i__main__
Screen
p35
(dp36
g27
g32
sg28
I1920
sg29
I0
sg30
I0
sg31
I1080
sbsg17
I77594630
sg18
I00
sbsI67110547
g14
sI67109517
(i__main__
Window
p37
(dp38
g6
S'0x400028d'
p39
sg8
(i__main__
Screen
p40
(dp41
g27
g37
sg28
I3840
sg29
I0
sg30
I1920
sg31
I1080
sbsg17
I67109517
sg18
I00
sbsI75497478
g20
ssS'WorkSpace'
p42
(i__main__
WorkSpace
p43
(dp44
S'Desktops'
p45
(lp46
(i__main__
Desktop
p47
(dp48
S'ScreensCount'
p49
I3
sS'Screens'
p50
(lp51
g35
ag40
ag25
asba(i__main__
Desktop
p52
(dp53
g49
I3
sg50
(lp54
(i__main__
Screen
p55
(dp56
g27
Nsg28
I1920
sg29
I0
sg30
I0
sg31
I1080
sba(i__main__
Screen
p57
(dp58
g27
Nsg28
I3840
sg29
I0
sg30
I1920
sg31
I1080
sba(i__main__
Screen
p59
(dp60
g27
Nsg28
I5760
sg29
I0
sg30
I3840
sg31
I1080
sbasba(i__main__
Desktop
p61
(dp62
g49
I3
sg50
(lp63
(i__main__
Screen
p64
(dp65
g27
Nsg28
I1920
sg29
I0
sg30
I0
sg31
I1080
sba(i__main__
Screen
p66
(dp67
g27
Nsg28
I3840
sg29
I0
sg30
I1920
sg31
I1080
sba(i__main__
Screen
p68
(dp69
g27
Nsg28
I5760
sg29
I0
sg30
I3840
sg31
I1080
sbasba(i__main__
Desktop
p70
(dp71
g49
I3
sg50
(lp72
(i__main__
Screen
p73
(dp74
g27
Nsg28
I1920
sg29
I0
sg30
I0
sg31
I1080
sba(i__main__
Screen
p75
(dp76
g27
Nsg28
I3840
sg29
I0
sg30
I1920
sg31
I1080
sba(i__main__
Screen
p77
(dp78
g27
Nsg28
I5760
sg29
I0
sg30
I3840
sg31
I1080
sbasbasS'DesktopsCount'
p79
I4
sbsb.